; ModuleID = 'source-C-CXX/52/1598.c'
source_filename = "source-C-CXX/52/1598.c"
target datalayout = "e-m:e-p270:32:32-p271:32:32-p272:64:64-i64:64-f80:128-n8:16:32:64-S128"
target triple = "x86_64-pc-linux-gnu"

@.str = private unnamed_addr constant [3 x i8] c"%d\00", align 1
@.str.1 = private unnamed_addr constant [4 x i8] c",%d\00", align 1

; Function Attrs: nofree nounwind sspstrong uwtable
define dso_local i32 @main() local_unnamed_addr #0 {
  %1 = alloca i32, align 4
  %2 = alloca [20001 x i32], align 16
  %3 = alloca i32, align 4
  %4 = bitcast i32* %1 to i8*
  call void @llvm.lifetime.start.p0i8(i64 4, i8* nonnull %4) #3
  %5 = bitcast [20001 x i32]* %2 to i8*
  call void @llvm.lifetime.start.p0i8(i64 80004, i8* nonnull %5) #3
  %6 = bitcast i32* %3 to i8*
  call void @llvm.lifetime.start.p0i8(i64 4, i8* nonnull %6) #3
  %7 = call i32 (i8*, ...) @__isoc99_scanf(i8* getelementptr inbounds ([3 x i8], [3 x i8]* @.str, i64 0, i64 0), i32* nonnull %1)
  %8 = call i32 (i8*, ...) @__isoc99_scanf(i8* getelementptr inbounds ([3 x i8], [3 x i8]* @.str, i64 0, i64 0), i32* nonnull %3)
  %9 = load i32, i32* %3, align 4, !tbaa !5
  %10 = call i32 (i8*, ...) @printf(i8* nonnull dereferenceable(1) getelementptr inbounds ([3 x i8], [3 x i8]* @.str, i64 0, i64 0), i32 %9)
  %11 = load i32, i32* %1, align 4, !tbaa !5
  %12 = icmp sgt i32 %11, 1
  br i1 %12, label %13, label %45

13:                                               ; preds = %0, %39
  %14 = phi i64 [ %41, %39 ], [ 1, %0 ]
  %15 = phi i32 [ %40, %39 ], [ undef, %0 ]
  %16 = getelementptr inbounds [20001 x i32], [20001 x i32]* %2, i64 0, i64 %14
  %17 = call i32 (i8*, ...) @__isoc99_scanf(i8* getelementptr inbounds ([3 x i8], [3 x i8]* @.str, i64 0, i64 0), i32* nonnull %16)
  %18 = icmp ugt i64 %14, 1
  br i1 %18, label %19, label %30

19:                                               ; preds = %13
  %20 = load i32, i32* %16, align 4, !tbaa !5
  br label %23

21:                                               ; preds = %23
  %22 = icmp eq i64 %29, %14
  br i1 %22, label %32, label %23, !llvm.loop !9

23:                                               ; preds = %19, %21
  %24 = phi i64 [ 1, %19 ], [ %29, %21 ]
  %25 = getelementptr inbounds [20001 x i32], [20001 x i32]* %2, i64 0, i64 %24
  %26 = load i32, i32* %25, align 4, !tbaa !5
  %27 = sub nsw i32 %20, %26
  %28 = icmp eq i32 %27, 0
  %29 = add nuw nsw i64 %24, 1
  br i1 %28, label %39, label %21

30:                                               ; preds = %13
  %31 = icmp eq i32 %15, 0
  br i1 %31, label %39, label %32

32:                                               ; preds = %21, %30
  %33 = phi i32 [ %15, %30 ], [ %27, %21 ]
  %34 = load i32, i32* %16, align 4, !tbaa !5
  %35 = load i32, i32* %3, align 4, !tbaa !5
  %36 = icmp eq i32 %34, %35
  br i1 %36, label %39, label %37

37:                                               ; preds = %32
  %38 = call i32 (i8*, ...) @printf(i8* nonnull dereferenceable(1) getelementptr inbounds ([4 x i8], [4 x i8]* @.str.1, i64 0, i64 0), i32 %34)
  br label %39

39:                                               ; preds = %23, %30, %32, %37
  %40 = phi i32 [ 0, %30 ], [ %33, %32 ], [ %33, %37 ], [ 0, %23 ]
  %41 = add nuw nsw i64 %14, 1
  %42 = load i32, i32* %1, align 4, !tbaa !5
  %43 = sext i32 %42 to i64
  %44 = icmp slt i64 %41, %43
  br i1 %44, label %13, label %45, !llvm.loop !11

45:                                               ; preds = %39, %0
  call void @llvm.lifetime.end.p0i8(i64 4, i8* nonnull %6) #3
  call void @llvm.lifetime.end.p0i8(i64 80004, i8* nonnull %5) #3
  call void @llvm.lifetime.end.p0i8(i64 4, i8* nonnull %4) #3
  ret i32 0
}

; Function Attrs: argmemonly mustprogress nofree nosync nounwind willreturn
declare void @llvm.lifetime.start.p0i8(i64 immarg, i8* nocapture) #1

; Function Attrs: nofree nounwind
declare noundef i32 @__isoc99_scanf(i8* nocapture noundef readonly, ...) local_unnamed_addr #2

; Function Attrs: nofree nounwind
declare noundef i32 @printf(i8* nocapture noundef readonly, ...) local_unnamed_addr #2

; Function Attrs: argmemonly mustprogress nofree nosync nounwind willreturn
declare void @llvm.lifetime.end.p0i8(i64 immarg, i8* nocapture) #1


!llvm.module.flags = !{!0, !1, !2, !3}
!llvm.ident = !{!4}

!0 = !{i32 1, !"wchar_size", i32 4}
!1 = !{i32 7, !"PIC Level", i32 2}
!2 = !{i32 7, !"PIE Level", i32 2}
!3 = !{i32 7, !"uwtable", i32 1}
!4 = !{!"clang version 13.0.0"}
!5 = !{!6, !6, i64 0}
!6 = !{!"int", !7, i64 0}
!7 = !{!"omnipotent char", !8, i64 0}
!8 = !{!"Simple C/C++ TBAA"}
!9 = distinct !{!9, !10}
!10 = !{!"llvm.loop.mustprogress"}
!11 = distinct !{!11, !10}
